target datalayout = "e-m:e-p270:32:32-p271:32:32-p272:64:64-i64:64-i128:128-f80:128-n8:16:32:64-S128"
target triple = "x86_64-pc-linux-gnu"

@.str.11 = private unnamed_addr constant [37 x i8] c"../openssl/test/rsa_sp800_56b_test.c\00", align 1
@.str.12 = private unnamed_addr constant [13 x i8] c"e = BN_new()\00", align 1
@.str.21 = private unnamed_addr constant [13 x i8] c"p = BN_new()\00", align 1
@.str.26 = private unnamed_addr constant [19 x i8] c"ctx = BN_CTX_new()\00", align 1
@.str.43 = private unnamed_addr constant [16 x i8] c"key = RSA_new()\00", align 1
@.str.44 = private unnamed_addr constant [13 x i8] c"q = BN_new()\00", align 1
@.str.45 = private unnamed_addr constant [19 x i8] c"BN_set_word(p, 15)\00", align 1
@.str.46 = private unnamed_addr constant [19 x i8] c"BN_set_word(q, 17)\00", align 1
@.str.47 = private unnamed_addr constant [28 x i8] c"RSA_set0_factors(key, p, q)\00", align 1
@.str.48 = private unnamed_addr constant [13 x i8] c"d = BN_new()\00", align 1
@.str.49 = private unnamed_addr constant [13 x i8] c"n = BN_new()\00", align 1
@.str.50 = private unnamed_addr constant [18 x i8] c"BN_set_word(e, 5)\00", align 1
@.str.51 = private unnamed_addr constant [20 x i8] c"BN_set_word(d, 157)\00", align 1
@.str.52 = private unnamed_addr constant [22 x i8] c"BN_set_word(n, 15*17)\00", align 1
@.str.53 = private unnamed_addr constant [27 x i8] c"RSA_set0_key(key, n, e, d)\00", align 1
@.str.54 = private unnamed_addr constant [45 x i8] c"ossl_rsa_check_private_exponent(key, 8, ctx)\00", align 1
@.str.55 = private unnamed_addr constant [19 x i8] c"BN_set_word(d, 45)\00", align 1
@.str.56 = private unnamed_addr constant [46 x i8] c"ossl_rsa_check_private_exponent(key, 16, ctx)\00", align 1
@.str.57 = private unnamed_addr constant [19 x i8] c"BN_set_word(d, 16)\00", align 1
@.str.58 = private unnamed_addr constant [19 x i8] c"BN_set_word(d, 46)\00", align 1

; Function Attrs: nounwind uwtable
define internal i32 @test_check_private_exponent() #0 {
  %1 = alloca i32, align 4
  %2 = alloca ptr, align 8
  %3 = alloca ptr, align 8
  %4 = alloca ptr, align 8
  %5 = alloca ptr, align 8
  %6 = alloca ptr, align 8
  %7 = alloca ptr, align 8
  %8 = alloca ptr, align 8
  call void @llvm.lifetime.start.p0(i64 4, ptr %1) #3
  store i32 0, ptr %1, align 4, !tbaa !4
  call void @llvm.lifetime.start.p0(i64 8, ptr %2) #3
  store ptr null, ptr %2, align 8, !tbaa !13
  call void @llvm.lifetime.start.p0(i64 8, ptr %3) #3
  store ptr null, ptr %3, align 8, !tbaa !11
  call void @llvm.lifetime.start.p0(i64 8, ptr %4) #3
  store ptr null, ptr %4, align 8, !tbaa !8
  call void @llvm.lifetime.start.p0(i64 8, ptr %5) #3
  store ptr null, ptr %5, align 8, !tbaa !8
  call void @llvm.lifetime.start.p0(i64 8, ptr %6) #3
  store ptr null, ptr %6, align 8, !tbaa !8
  call void @llvm.lifetime.start.p0(i64 8, ptr %7) #3
  store ptr null, ptr %7, align 8, !tbaa !8
  call void @llvm.lifetime.start.p0(i64 8, ptr %8) #3
  store ptr null, ptr %8, align 8, !tbaa !8
  %9 = call ptr @RSA_new()
  store ptr %9, ptr %2, align 8, !tbaa !13
  %10 = call i32 @test_ptr(ptr noundef @.str.11, i32 noundef 228, ptr noundef @.str.43, ptr noundef %9)
  %11 = icmp ne i32 %10, 0
  br i1 %11, label %12, label %47

12:                                               ; preds = %0
  %13 = call ptr @BN_CTX_new()
  store ptr %13, ptr %3, align 8, !tbaa !11
  %14 = call i32 @test_ptr(ptr noundef @.str.11, i32 noundef 229, ptr noundef @.str.26, ptr noundef %13)
  %15 = icmp ne i32 %14, 0
  br i1 %15, label %16, label %47

16:                                               ; preds = %12
  %17 = call ptr @BN_new()
  store ptr %17, ptr %4, align 8, !tbaa !8
  %18 = call i32 @test_ptr(ptr noundef @.str.11, i32 noundef 230, ptr noundef @.str.21, ptr noundef %17)
  %19 = icmp ne i32 %18, 0
  br i1 %19, label %20, label %47

20:                                               ; preds = %16
  %21 = call ptr @BN_new()
  store ptr %21, ptr %5, align 8, !tbaa !8
  %22 = call i32 @test_ptr(ptr noundef @.str.11, i32 noundef 231, ptr noundef @.str.44, ptr noundef %21)
  %23 = icmp ne i32 %22, 0
  br i1 %23, label %24, label %47

24:                                               ; preds = %20
  %25 = load ptr, ptr %4, align 8, !tbaa !8
  %26 = call i32 @BN_set_word(ptr noundef %25, i64 noundef 15)
  %27 = icmp ne i32 %26, 0
  %28 = zext i1 %27 to i32
  %29 = call i32 @test_true(ptr noundef @.str.11, i32 noundef 233, ptr noundef @.str.45, i32 noundef %28)
  %30 = icmp ne i32 %29, 0
  br i1 %30, label %31, label %47

31:                                               ; preds = %24
  %32 = load ptr, ptr %5, align 8, !tbaa !8
  %33 = call i32 @BN_set_word(ptr noundef %32, i64 noundef 17)
  %34 = icmp ne i32 %33, 0
  %35 = zext i1 %34 to i32
  %36 = call i32 @test_true(ptr noundef @.str.11, i32 noundef 234, ptr noundef @.str.46, i32 noundef %35)
  %37 = icmp ne i32 %36, 0
  br i1 %37, label %38, label %47

38:                                               ; preds = %31
  %39 = load ptr, ptr %2, align 8, !tbaa !13
  %40 = load ptr, ptr %4, align 8, !tbaa !8
  %41 = load ptr, ptr %5, align 8, !tbaa !8
  %42 = call i32 @RSA_set0_factors(ptr noundef %39, ptr noundef %40, ptr noundef %41)
  %43 = icmp ne i32 %42, 0
  %44 = zext i1 %43 to i32
  %45 = call i32 @test_true(ptr noundef @.str.11, i32 noundef 235, ptr noundef @.str.47, i32 noundef %44)
  %46 = icmp ne i32 %45, 0
  br label %47

47:                                               ; preds = %38, %31, %24, %20, %16, %12, %0
  %48 = phi i1 [ false, %31 ], [ false, %24 ], [ false, %20 ], [ false, %16 ], [ false, %12 ], [ false, %0 ], [ %46, %38 ]
  %49 = zext i1 %48 to i32
  store i32 %49, ptr %1, align 4, !tbaa !4
  %50 = load i32, ptr %1, align 4, !tbaa !4
  %51 = icmp ne i32 %50, 0
  br i1 %51, label %55, label %52

52:                                               ; preds = %47
  %53 = load ptr, ptr %4, align 8, !tbaa !8
  call void @BN_free(ptr noundef %53)
  %54 = load ptr, ptr %5, align 8, !tbaa !8
  call void @BN_free(ptr noundef %54)
  br label %171

55:                                               ; preds = %47
  %56 = call ptr @BN_new()
  store ptr %56, ptr %6, align 8, !tbaa !8
  %57 = call i32 @test_ptr(ptr noundef @.str.11, i32 noundef 242, ptr noundef @.str.12, ptr noundef %56)
  %58 = icmp ne i32 %57, 0
  br i1 %58, label %59, label %98

59:                                               ; preds = %55
  %60 = call ptr @BN_new()
  store ptr %60, ptr %7, align 8, !tbaa !8
  %61 = call i32 @test_ptr(ptr noundef @.str.11, i32 noundef 243, ptr noundef @.str.48, ptr noundef %60)
  %62 = icmp ne i32 %61, 0
  br i1 %62, label %63, label %98

63:                                               ; preds = %59
  %64 = call ptr @BN_new()
  store ptr %64, ptr %8, align 8, !tbaa !8
  %65 = call i32 @test_ptr(ptr noundef @.str.11, i32 noundef 244, ptr noundef @.str.49, ptr noundef %64)
  %66 = icmp ne i32 %65, 0
  br i1 %66, label %67, label %98

67:                                               ; preds = %63
  %68 = load ptr, ptr %6, align 8, !tbaa !8
  %69 = call i32 @BN_set_word(ptr noundef %68, i64 noundef 5)
  %70 = icmp ne i32 %69, 0
  %71 = zext i1 %70 to i32
  %72 = call i32 @test_true(ptr noundef @.str.11, i32 noundef 245, ptr noundef @.str.50, i32 noundef %71)
  %73 = icmp ne i32 %72, 0
  br i1 %73, label %74, label %98

74:                                               ; preds = %67
  %75 = load ptr, ptr %7, align 8, !tbaa !8
  %76 = call i32 @BN_set_word(ptr noundef %75, i64 noundef 157)
  %77 = icmp ne i32 %76, 0
  %78 = zext i1 %77 to i32
  %79 = call i32 @test_true(ptr noundef @.str.11, i32 noundef 246, ptr noundef @.str.51, i32 noundef %78)
  %80 = icmp ne i32 %79, 0
  br i1 %80, label %81, label %98

81:                                               ; preds = %74
  %82 = load ptr, ptr %8, align 8, !tbaa !8
  %83 = call i32 @BN_set_word(ptr noundef %82, i64 noundef 255)
  %84 = icmp ne i32 %83, 0
  %85 = zext i1 %84 to i32
  %86 = call i32 @test_true(ptr noundef @.str.11, i32 noundef 247, ptr noundef @.str.52, i32 noundef %85)
  %87 = icmp ne i32 %86, 0
  br i1 %87, label %88, label %98

88:                                               ; preds = %81
  %89 = load ptr, ptr %2, align 8, !tbaa !13
  %90 = load ptr, ptr %8, align 8, !tbaa !8
  %91 = load ptr, ptr %6, align 8, !tbaa !8
  %92 = load ptr, ptr %7, align 8, !tbaa !8
  %93 = call i32 @RSA_set0_key(ptr noundef %89, ptr noundef %90, ptr noundef %91, ptr noundef %92)
  %94 = icmp ne i32 %93, 0
  %95 = zext i1 %94 to i32
  %96 = call i32 @test_true(ptr noundef @.str.11, i32 noundef 248, ptr noundef @.str.53, i32 noundef %95)
  %97 = icmp ne i32 %96, 0
  br label %98

98:                                               ; preds = %88, %81, %74, %67, %63, %59, %55
  %99 = phi i1 [ false, %81 ], [ false, %74 ], [ false, %67 ], [ false, %63 ], [ false, %59 ], [ false, %55 ], [ %97, %88 ]
  %100 = zext i1 %99 to i32
  store i32 %100, ptr %1, align 4, !tbaa !4
  %101 = load i32, ptr %1, align 4, !tbaa !4
  %102 = icmp ne i32 %101, 0
  br i1 %102, label %107, label %103

103:                                              ; preds = %98
  %104 = load ptr, ptr %6, align 8, !tbaa !8
  call void @BN_free(ptr noundef %104)
  %105 = load ptr, ptr %7, align 8, !tbaa !8
  call void @BN_free(ptr noundef %105)
  %106 = load ptr, ptr %8, align 8, !tbaa !8
  call void @BN_free(ptr noundef %106)
  br label %171

107:                                              ; preds = %98
  %108 = load ptr, ptr %2, align 8, !tbaa !13
  %109 = load ptr, ptr %3, align 8, !tbaa !11
  %110 = call i32 @ossl_rsa_check_private_exponent(ptr noundef %108, i32 noundef 8, ptr noundef %109)
  %111 = icmp ne i32 %110, 0
  %112 = zext i1 %111 to i32
  %113 = call i32 @test_false(ptr noundef @.str.11, i32 noundef 256, ptr noundef @.str.54, i32 noundef %112)
  %114 = icmp ne i32 %113, 0
  br i1 %114, label %115, label %168

115:                                              ; preds = %107
  %116 = load ptr, ptr %7, align 8, !tbaa !8
  %117 = call i32 @BN_set_word(ptr noundef %116, i64 noundef 45)
  %118 = icmp ne i32 %117, 0
  %119 = zext i1 %118 to i32
  %120 = call i32 @test_true(ptr noundef @.str.11, i32 noundef 257, ptr noundef @.str.55, i32 noundef %119)
  %121 = icmp ne i32 %120, 0
  br i1 %121, label %122, label %168

122:                                              ; preds = %115
  %123 = load ptr, ptr %2, align 8, !tbaa !13
  %124 = load ptr, ptr %3, align 8, !tbaa !11
  %125 = call i32 @ossl_rsa_check_private_exponent(ptr noundef %123, i32 noundef 8, ptr noundef %124)
  %126 = icmp ne i32 %125, 0
  %127 = zext i1 %126 to i32
  %128 = call i32 @test_true(ptr noundef @.str.11, i32 noundef 259, ptr noundef @.str.54, i32 noundef %127)
  %129 = icmp ne i32 %128, 0
  br i1 %129, label %130, label %168

130:                                              ; preds = %122
  %131 = load ptr, ptr %2, align 8, !tbaa !13
  %132 = load ptr, ptr %3, align 8, !tbaa !11
  %133 = call i32 @ossl_rsa_check_private_exponent(ptr noundef %131, i32 noundef 16, ptr noundef %132)
  %134 = icmp ne i32 %133, 0
  %135 = zext i1 %134 to i32
  %136 = call i32 @test_false(ptr noundef @.str.11, i32 noundef 261, ptr noundef @.str.56, i32 noundef %135)
  %137 = icmp ne i32 %136, 0
  br i1 %137, label %138, label %168

138:                                              ; preds = %130
  %139 = load ptr, ptr %7, align 8, !tbaa !8
  %140 = call i32 @BN_set_word(ptr noundef %139, i64 noundef 16)
  %141 = icmp ne i32 %140, 0
  %142 = zext i1 %141 to i32
  %143 = call i32 @test_true(ptr noundef @.str.11, i32 noundef 263, ptr noundef @.str.57, i32 noundef %142)
  %144 = icmp ne i32 %143, 0
  br i1 %144, label %145, label %168

145:                                              ; preds = %138
  %146 = load ptr, ptr %2, align 8, !tbaa !13
  %147 = load ptr, ptr %3, align 8, !tbaa !11
  %148 = call i32 @ossl_rsa_check_private_exponent(ptr noundef %146, i32 noundef 8, ptr noundef %147)
  %149 = icmp ne i32 %148, 0
  %150 = zext i1 %149 to i32
  %151 = call i32 @test_false(ptr noundef @.str.11, i32 noundef 264, ptr noundef @.str.54, i32 noundef %150)
  %152 = icmp ne i32 %151, 0
  br i1 %152, label %153, label %168

153:                                              ; preds = %145
  %154 = load ptr, ptr %7, align 8, !tbaa !8
  %155 = call i32 @BN_set_word(ptr noundef %154, i64 noundef 46)
  %156 = icmp ne i32 %155, 0
  %157 = zext i1 %156 to i32
  %158 = call i32 @test_true(ptr noundef @.str.11, i32 noundef 266, ptr noundef @.str.58, i32 noundef %157)
  %159 = icmp ne i32 %158, 0
  br i1 %159, label %160, label %168

160:                                              ; preds = %153
  %161 = load ptr, ptr %2, align 8, !tbaa !13
  %162 = load ptr, ptr %3, align 8, !tbaa !11
  %163 = call i32 @ossl_rsa_check_private_exponent(ptr noundef %161, i32 noundef 8, ptr noundef %162)
  %164 = icmp ne i32 %163, 0
  %165 = zext i1 %164 to i32
  %166 = call i32 @test_false(ptr noundef @.str.11, i32 noundef 267, ptr noundef @.str.54, i32 noundef %165)
  %167 = icmp ne i32 %166, 0
  br label %168

168:                                              ; preds = %160, %153, %145, %138, %130, %122, %115, %107
  %169 = phi i1 [ false, %153 ], [ false, %145 ], [ false, %138 ], [ false, %130 ], [ false, %122 ], [ false, %115 ], [ false, %107 ], [ %167, %160 ]
  %170 = zext i1 %169 to i32
  store i32 %170, ptr %1, align 4, !tbaa !4
  br label %171

171:                                              ; preds = %168, %103, %52
  %172 = load ptr, ptr %2, align 8, !tbaa !13
  call void @RSA_free(ptr noundef %172)
  %173 = load ptr, ptr %3, align 8, !tbaa !11
  call void @BN_CTX_free(ptr noundef %173)
  %174 = load i32, ptr %1, align 4, !tbaa !4
  call void @llvm.lifetime.end.p0(i64 8, ptr %8) #3
  call void @llvm.lifetime.end.p0(i64 8, ptr %7) #3
  call void @llvm.lifetime.end.p0(i64 8, ptr %6) #3
  call void @llvm.lifetime.end.p0(i64 8, ptr %5) #3
  call void @llvm.lifetime.end.p0(i64 8, ptr %4) #3
  call void @llvm.lifetime.end.p0(i64 8, ptr %3) #3
  call void @llvm.lifetime.end.p0(i64 8, ptr %2) #3
  call void @llvm.lifetime.end.p0(i64 4, ptr %1) #3
  ret i32 %174
}