; Function Attrs: nounwind uwtable
define internal range(i32 0, 2) i32 @test_check_private_exponent() #0 {
  %1 = tail call ptr @RSA_new() #2
  %2 = tail call i32 @test_ptr(ptr noundef nonnull @.str.11, i32 noundef 228, ptr noundef nonnull @.str.43, ptr noundef %1) #2
  %.not = icmp eq i32 %2, 0
  br i1 %.not, label %.thread, label %3

3:                                                ; preds = %0
  %4 = tail call ptr @BN_CTX_new() #2
  %5 = tail call i32 @test_ptr(ptr noundef nonnull @.str.11, i32 noundef 229, ptr noundef nonnull @.str.26, ptr noundef %4) #2
  %.not39 = icmp eq i32 %5, 0
  br i1 %.not39, label %.thread, label %6

6:                                                ; preds = %3
  %7 = tail call ptr @BN_new() #2
  %8 = tail call i32 @test_ptr(ptr noundef nonnull @.str.11, i32 noundef 230, ptr noundef nonnull @.str.21, ptr noundef %7) #2
  %.not40 = icmp eq i32 %8, 0
  br i1 %.not40, label %.thread, label %9

9:                                                ; preds = %6
  %10 = tail call ptr @BN_new() #2
  %11 = tail call i32 @test_ptr(ptr noundef nonnull @.str.11, i32 noundef 231, ptr noundef nonnull @.str.44, ptr noundef %10) #2
  %.not41 = icmp eq i32 %11, 0
  br i1 %.not41, label %.thread, label %12

12:                                               ; preds = %9
  %13 = tail call i32 @BN_set_word(ptr noundef %7, i64 noundef 15) #2
  %14 = icmp ne i32 %13, 0
  %15 = zext i1 %14 to i32
  %16 = tail call i32 @test_true(ptr noundef nonnull @.str.11, i32 noundef 233, ptr noundef nonnull @.str.45, i32 noundef %15) #2
  %.not42 = icmp eq i32 %16, 0
  br i1 %.not42, label %.thread, label %17

17:                                               ; preds = %12
  %18 = tail call i32 @BN_set_word(ptr noundef %10, i64 noundef 17) #2
  %19 = icmp ne i32 %18, 0
  %20 = zext i1 %19 to i32
  %21 = tail call i32 @test_true(ptr noundef nonnull @.str.11, i32 noundef 234, ptr noundef nonnull @.str.46, i32 noundef %20) #2
  %.not43 = icmp eq i32 %21, 0
  br i1 %.not43, label %.thread, label %22

22:                                               ; preds = %17
  %23 = tail call i32 @RSA_set0_factors(ptr noundef %1, ptr noundef %7, ptr noundef %10) #2
  %24 = icmp ne i32 %23, 0
  %25 = zext i1 %24 to i32
  %26 = tail call i32 @test_true(ptr noundef nonnull @.str.11, i32 noundef 235, ptr noundef nonnull @.str.47, i32 noundef %25) #2
  %.not70 = icmp eq i32 %26, 0
  br i1 %.not70, label %.thread, label %27

.thread:                                          ; preds = %0, %3, %6, %9, %12, %17, %22
  %.03563 = phi ptr [ %10, %22 ], [ null, %0 ], [ null, %3 ], [ null, %6 ], [ %10, %9 ], [ %10, %12 ], [ %10, %17 ]
  %.03662 = phi ptr [ %7, %22 ], [ null, %0 ], [ null, %3 ], [ %7, %6 ], [ %7, %9 ], [ %7, %12 ], [ %7, %17 ]
  %.03761 = phi ptr [ %4, %22 ], [ null, %0 ], [ %4, %3 ], [ %4, %6 ], [ %4, %9 ], [ %4, %12 ], [ %4, %17 ]
  tail call void @BN_free(ptr noundef %.03662) #2
  tail call void @BN_free(ptr noundef %.03563) #2
  br label %98

27:                                               ; preds = %22
  %28 = tail call ptr @BN_new() #2
  %29 = tail call i32 @test_ptr(ptr noundef nonnull @.str.11, i32 noundef 242, ptr noundef nonnull @.str.12, ptr noundef %28) #2
  %.not44 = icmp eq i32 %29, 0
  br i1 %.not44, label %.thread65, label %30

30:                                               ; preds = %27
  %31 = tail call ptr @BN_new() #2
  %32 = tail call i32 @test_ptr(ptr noundef nonnull @.str.11, i32 noundef 243, ptr noundef nonnull @.str.48, ptr noundef %31) #2
  %.not45 = icmp eq i32 %32, 0
  br i1 %.not45, label %.thread65, label %33

33:                                               ; preds = %30
  %34 = tail call ptr @BN_new() #2
  %35 = tail call i32 @test_ptr(ptr noundef nonnull @.str.11, i32 noundef 244, ptr noundef nonnull @.str.49, ptr noundef %34) #2
  %.not46 = icmp eq i32 %35, 0
  br i1 %.not46, label %.thread65, label %36

36:                                               ; preds = %33
  %37 = tail call i32 @BN_set_word(ptr noundef %28, i64 noundef 5) #2
  %38 = icmp ne i32 %37, 0
  %39 = zext i1 %38 to i32
  %40 = tail call i32 @test_true(ptr noundef nonnull @.str.11, i32 noundef 245, ptr noundef nonnull @.str.50, i32 noundef %39) #2
  %.not47 = icmp eq i32 %40, 0
  br i1 %.not47, label %.thread65, label %41

41:                                               ; preds = %36
  %42 = tail call i32 @BN_set_word(ptr noundef %31, i64 noundef 157) #2
  %43 = icmp ne i32 %42, 0
  %44 = zext i1 %43 to i32
  %45 = tail call i32 @test_true(ptr noundef nonnull @.str.11, i32 noundef 246, ptr noundef nonnull @.str.51, i32 noundef %44) #2
  %.not48 = icmp eq i32 %45, 0
  br i1 %.not48, label %.thread65, label %46

46:                                               ; preds = %41
  %47 = tail call i32 @BN_set_word(ptr noundef %34, i64 noundef 255) #2
  %48 = icmp ne i32 %47, 0
  %49 = zext i1 %48 to i32
  %50 = tail call i32 @test_true(ptr noundef nonnull @.str.11, i32 noundef 247, ptr noundef nonnull @.str.52, i32 noundef %49) #2
  %.not49 = icmp eq i32 %50, 0
  br i1 %.not49, label %.thread65, label %51

51:                                               ; preds = %46
  %52 = tail call i32 @RSA_set0_key(ptr noundef %1, ptr noundef %34, ptr noundef %28, ptr noundef %31) #2
  %53 = icmp ne i32 %52, 0
  %54 = zext i1 %53 to i32
  %55 = tail call i32 @test_true(ptr noundef nonnull @.str.11, i32 noundef 248, ptr noundef nonnull @.str.53, i32 noundef %54) #2
  %.not71 = icmp eq i32 %55, 0
  br i1 %.not71, label %.thread65, label %56

.thread65:                                        ; preds = %27, %30, %33, %36, %41, %46, %51
  %.069 = phi ptr [ %34, %51 ], [ null, %27 ], [ null, %30 ], [ %34, %33 ], [ %34, %36 ], [ %34, %41 ], [ %34, %46 ]
  %.03468 = phi ptr [ %31, %51 ], [ null, %27 ], [ %31, %30 ], [ %31, %33 ], [ %31, %36 ], [ %31, %41 ], [ %31, %46 ]
  tail call void @BN_free(ptr noundef %28) #2
  tail call void @BN_free(ptr noundef %.03468) #2
  tail call void @BN_free(ptr noundef %.069) #2
  br label %98

56:                                               ; preds = %51
  %57 = tail call i32 @ossl_rsa_check_private_exponent(ptr noundef %1, i32 noundef 8, ptr noundef %4) #2
  %58 = icmp ne i32 %57, 0
  %59 = zext i1 %58 to i32
  %60 = tail call i32 @test_false(ptr noundef nonnull @.str.11, i32 noundef 256, ptr noundef nonnull @.str.54, i32 noundef %59) #2
  %.not50 = icmp eq i32 %60, 0
  br i1 %.not50, label %98, label %61

61:                                               ; preds = %56
  %62 = tail call i32 @BN_set_word(ptr noundef %31, i64 noundef 45) #2
  %63 = icmp ne i32 %62, 0
  %64 = zext i1 %63 to i32
  %65 = tail call i32 @test_true(ptr noundef nonnull @.str.11, i32 noundef 257, ptr noundef nonnull @.str.55, i32 noundef %64) #2
  %.not51 = icmp eq i32 %65, 0
  br i1 %.not51, label %98, label %66

66:                                               ; preds = %61
  %67 = tail call i32 @ossl_rsa_check_private_exponent(ptr noundef %1, i32 noundef 8, ptr noundef %4) #2
  %68 = icmp ne i32 %67, 0
  %69 = zext i1 %68 to i32
  %70 = tail call i32 @test_true(ptr noundef nonnull @.str.11, i32 noundef 259, ptr noundef nonnull @.str.54, i32 noundef %69) #2
  %.not52 = icmp eq i32 %70, 0
  br i1 %.not52, label %98, label %71

71:                                               ; preds = %66
  %72 = tail call i32 @ossl_rsa_check_private_exponent(ptr noundef %1, i32 noundef 16, ptr noundef %4) #2
  %73 = icmp ne i32 %72, 0
  %74 = zext i1 %73 to i32
  %75 = tail call i32 @test_false(ptr noundef nonnull @.str.11, i32 noundef 261, ptr noundef nonnull @.str.56, i32 noundef %74) #2
  %.not53 = icmp eq i32 %75, 0
  br i1 %.not53, label %98, label %76

76:                                               ; preds = %71
  %77 = tail call i32 @BN_set_word(ptr noundef %31, i64 noundef 16) #2
  %78 = icmp ne i32 %77, 0
  %79 = zext i1 %78 to i32
  %80 = tail call i32 @test_true(ptr noundef nonnull @.str.11, i32 noundef 263, ptr noundef nonnull @.str.57, i32 noundef %79) #2
  %.not54 = icmp eq i32 %80, 0
  br i1 %.not54, label %98, label %81

81:                                               ; preds = %76
  %82 = tail call i32 @ossl_rsa_check_private_exponent(ptr noundef %1, i32 noundef 8, ptr noundef %4) #2
  %83 = icmp ne i32 %82, 0
  %84 = zext i1 %83 to i32
  %85 = tail call i32 @test_false(ptr noundef nonnull @.str.11, i32 noundef 264, ptr noundef nonnull @.str.54, i32 noundef %84) #2
  %.not55 = icmp eq i32 %85, 0
  br i1 %.not55, label %98, label %86

86:                                               ; preds = %81
  %87 = tail call i32 @BN_set_word(ptr noundef %31, i64 noundef 46) #2
  %88 = icmp ne i32 %87, 0
  %89 = zext i1 %88 to i32
  %90 = tail call i32 @test_true(ptr noundef nonnull @.str.11, i32 noundef 266, ptr noundef nonnull @.str.58, i32 noundef %89) #2
  %.not56 = icmp eq i32 %90, 0
  br i1 %.not56, label %98, label %91

91:                                               ; preds = %86
  %92 = tail call i32 @ossl_rsa_check_private_exponent(ptr noundef %1, i32 noundef 8, ptr noundef %4) #2
  %93 = icmp ne i32 %92, 0
  %94 = zext i1 %93 to i32
  %95 = tail call i32 @test_false(ptr noundef nonnull @.str.11, i32 noundef 267, ptr noundef nonnull @.str.54, i32 noundef %94) #2
  %96 = icmp ne i32 %95, 0
  %97 = zext i1 %96 to i32
  br label %98

98:                                               ; preds = %56, %61, %66, %71, %76, %81, %86, %91, %.thread65, %.thread
  %.03760 = phi ptr [ %4, %.thread65 ], [ %.03761, %.thread ], [ %4, %86 ], [ %4, %81 ], [ %4, %76 ], [ %4, %71 ], [ %4, %66 ], [ %4, %61 ], [ %4, %56 ], [ %4, %91 ]
  %.038 = phi i32 [ 0, %.thread65 ], [ 0, %.thread ], [ 0, %86 ], [ 0, %81 ], [ 0, %76 ], [ 0, %71 ], [ 0, %66 ], [ 0, %61 ], [ 0, %56 ], [ %97, %91 ]
  tail call void @RSA_free(ptr noundef %1) #2
  tail call void @BN_CTX_free(ptr noundef %.03760) #2
  ret i32 %.038
}